target datalayout = "e-m:e-p270:32:32-p271:32:32-p272:64:64-i64:64-i128:128-f80:128-n8:16:32:64-S128"
target triple = "x86_64-pc-linux-gnu"

%struct.Hop_Obj_t_ = type { %union.anon, %union.anon.0, ptr, ptr, i32, i32 }
%union.anon = type { ptr }
%union.anon.0 = type { ptr }
%struct.Vec_Ptr_t_ = type { i32, i32, ptr }
%struct.Hop_Man_t_ = type { ptr, ptr, ptr, ptr, %struct.Hop_Obj_t_, [6 x i32], i32, i32, ptr, i32, ptr, i32, i32, i32, ptr, ptr, ptr, i64, i64 }

; Function Attrs: inlinehint nounwind uwtable
define internal ptr @Vec_PtrEntry(ptr noundef %0, i32 noundef %1) #1 {
  %3 = alloca ptr, align 8
  %4 = alloca i32, align 4
  store ptr %0, ptr %3, align 8, !tbaa !8
  store i32 %1, ptr %4, align 4, !tbaa !21
  %5 = load ptr, ptr %3, align 8, !tbaa !8
  %6 = getelementptr inbounds nuw %struct.Vec_Ptr_t_, ptr %5, i32 0, i32 2
  %7 = load ptr, ptr %6, align 8, !tbaa !18
  %8 = load i32, ptr %4, align 4, !tbaa !21
  %9 = sext i32 %8 to i64
  %10 = getelementptr inbounds ptr, ptr %7, i64 %9
  %11 = load ptr, ptr %10, align 8, !tbaa !14
  ret ptr %11
}

; Function Attrs: inlinehint nounwind uwtable
define internal i32 @Vec_PtrSize(ptr noundef %0) #1 {
  %2 = alloca ptr, align 8
  store ptr %0, ptr %2, align 8, !tbaa !8
  %3 = load ptr, ptr %2, align 8, !tbaa !8
  %4 = getelementptr inbounds nuw %struct.Vec_Ptr_t_, ptr %3, i32 0, i32 1
  %5 = load i32, ptr %4, align 4, !tbaa !15
  ret i32 %5
}

; Function Attrs: inlinehint nounwind uwtable
define internal ptr @Hop_NotCond(ptr noundef %0, i32 noundef %1) #1 {
  %3 = alloca ptr, align 8
  %4 = alloca i32, align 4
  store ptr %0, ptr %3, align 8, !tbaa !3
  store i32 %1, ptr %4, align 4, !tbaa !21
  %5 = load ptr, ptr %3, align 8, !tbaa !3
  %6 = ptrtoint ptr %5 to i64
  %7 = load i32, ptr %4, align 4, !tbaa !21
  %8 = sext i32 %7 to i64
  %9 = xor i64 %6, %8
  %10 = inttoptr i64 %9 to ptr
  ret ptr %10
}

; Function Attrs: inlinehint nounwind uwtable
define internal i32 @Hop_IsComplement(ptr noundef %0) #1 {
  %2 = alloca ptr, align 8
  store ptr %0, ptr %2, align 8, !tbaa !3
  %3 = load ptr, ptr %2, align 8, !tbaa !3
  %4 = ptrtoint ptr %3 to i64
  %5 = and i64 %4, 1
  %6 = trunc i64 %5 to i32
  ret i32 %6
}

; Function Attrs: inlinehint nounwind uwtable
define internal ptr @Hop_ManConst1(ptr noundef %0) #1 {
  %2 = alloca ptr, align 8
  store ptr %0, ptr %2, align 8, !tbaa !19
  %3 = load ptr, ptr %2, align 8, !tbaa !19
  %4 = getelementptr inbounds nuw %struct.Hop_Man_t_, ptr %3, i32 0, i32 3
  %5 = load ptr, ptr %4, align 8, !tbaa !37
  ret ptr %5
}

; Function Attrs: inlinehint nounwind uwtable
define internal i32 @Hop_ObjIsConst1(ptr noundef %0) #1 {
  %2 = alloca ptr, align 8
  store ptr %0, ptr %2, align 8, !tbaa !3
  %3 = load ptr, ptr %2, align 8, !tbaa !3
  %4 = getelementptr inbounds nuw %struct.Hop_Obj_t_, ptr %3, i32 0, i32 4
  %5 = load i32, ptr %4, align 8
  %6 = and i32 %5, 7
  %7 = icmp eq i32 %6, 1
  %8 = zext i1 %7 to i32
  ret i32 %8
}

; Function Attrs: inlinehint nounwind uwtable
define internal ptr @Hop_Regular(ptr noundef %0) #1 {
  %2 = alloca ptr, align 8
  store ptr %0, ptr %2, align 8, !tbaa !3
  %3 = load ptr, ptr %2, align 8, !tbaa !3
  %4 = ptrtoint ptr %3 to i64
  %5 = and i64 %4, -2
  %6 = inttoptr i64 %5 to ptr
  ret ptr %6
}

; Function Attrs: nounwind uwtable
define ptr @Hop_Transfer(ptr noundef %0, ptr noundef %1, ptr noundef %2, i32 noundef %3) #0 {
  %5 = alloca ptr, align 8
  %6 = alloca ptr, align 8
  %7 = alloca ptr, align 8
  %8 = alloca ptr, align 8
  %9 = alloca i32, align 4
  %10 = alloca ptr, align 8
  %11 = alloca i32, align 4
  %12 = alloca i32, align 4
  store ptr %0, ptr %6, align 8, !tbaa !19
  store ptr %1, ptr %7, align 8, !tbaa !19
  store ptr %2, ptr %8, align 8, !tbaa !3
  store i32 %3, ptr %9, align 4, !tbaa !21
  call void @llvm.lifetime.start.p0(i64 8, ptr %10) #7
  call void @llvm.lifetime.start.p0(i64 4, ptr %11) #7
  %13 = load ptr, ptr %6, align 8, !tbaa !19
  %14 = load ptr, ptr %7, align 8, !tbaa !19
  %15 = icmp eq ptr %13, %14
  br i1 %15, label %16, label %18

16:                                               ; preds = %4
  %17 = load ptr, ptr %8, align 8, !tbaa !3
  store ptr %17, ptr %5, align 8
  store i32 1, ptr %12, align 4
  br label %72

18:                                               ; preds = %4
  %19 = load ptr, ptr %8, align 8, !tbaa !3
  %20 = call ptr @Hop_Regular(ptr noundef %19)
  %21 = call i32 @Hop_ObjIsConst1(ptr noundef %20)
  %22 = icmp ne i32 %21, 0
  br i1 %22, label %23, label %29

23:                                               ; preds = %18
  %24 = load ptr, ptr %7, align 8, !tbaa !19
  %25 = call ptr @Hop_ManConst1(ptr noundef %24)
  %26 = load ptr, ptr %8, align 8, !tbaa !3
  %27 = call i32 @Hop_IsComplement(ptr noundef %26)
  %28 = call ptr @Hop_NotCond(ptr noundef %25, i32 noundef %27)
  store ptr %28, ptr %5, align 8
  store i32 1, ptr %12, align 4
  br label %72

29:                                               ; preds = %18
  store i32 0, ptr %11, align 4, !tbaa !21
  br label %30

30:                                               ; preds = %56, %29
  %31 = load i32, ptr %11, align 4, !tbaa !21
  %32 = load ptr, ptr %6, align 8, !tbaa !19
  %33 = getelementptr inbounds nuw %struct.Hop_Man_t_, ptr %32, i32 0, i32 0
  %34 = load ptr, ptr %33, align 8, !tbaa !32
  %35 = call i32 @Vec_PtrSize(ptr noundef %34)
  %36 = icmp slt i32 %31, %35
  br i1 %36, label %37, label %43

37:                                               ; preds = %30
  %38 = load ptr, ptr %6, align 8, !tbaa !19
  %39 = getelementptr inbounds nuw %struct.Hop_Man_t_, ptr %38, i32 0, i32 0
  %40 = load ptr, ptr %39, align 8, !tbaa !32
  %41 = load i32, ptr %11, align 4, !tbaa !21
  %42 = call ptr @Vec_PtrEntry(ptr noundef %40, i32 noundef %41)
  store ptr %42, ptr %10, align 8, !tbaa !3
  br label %43

43:                                               ; preds = %37, %30
  %44 = phi i1 [ false, %30 ], [ true, %37 ]
  br i1 %44, label %45, label %59

45:                                               ; preds = %43
  %46 = load i32, ptr %11, align 4, !tbaa !21
  %47 = load i32, ptr %9, align 4, !tbaa !21
  %48 = icmp eq i32 %46, %47
  br i1 %48, label %49, label %50

49:                                               ; preds = %45
  br label %59

50:                                               ; preds = %45
  %51 = load ptr, ptr %7, align 8, !tbaa !19
  %52 = load i32, ptr %11, align 4, !tbaa !21
  %53 = call ptr @Hop_IthVar(ptr noundef %51, i32 noundef %52)
  %54 = load ptr, ptr %10, align 8, !tbaa !3
  %55 = getelementptr inbounds nuw %struct.Hop_Obj_t_, ptr %54, i32 0, i32 0
  store ptr %53, ptr %55, align 8, !tbaa !31
  br label %56

56:                                               ; preds = %50
  %57 = load i32, ptr %11, align 4, !tbaa !21
  %58 = add nsw i32 %57, 1
  store i32 %58, ptr %11, align 4, !tbaa !21
  br label %30, !llvm.loop !44

59:                                               ; preds = %49, %43
  %60 = load ptr, ptr %7, align 8, !tbaa !19
  %61 = load ptr, ptr %8, align 8, !tbaa !3
  %62 = call ptr @Hop_Regular(ptr noundef %61)
  call void @Hop_Transfer_rec(ptr noundef %60, ptr noundef %62)
  %63 = load ptr, ptr %8, align 8, !tbaa !3
  %64 = call ptr @Hop_Regular(ptr noundef %63)
  call void @Hop_ConeUnmark_rec(ptr noundef %64)
  %65 = load ptr, ptr %8, align 8, !tbaa !3
  %66 = call ptr @Hop_Regular(ptr noundef %65)
  %67 = getelementptr inbounds nuw %struct.Hop_Obj_t_, ptr %66, i32 0, i32 0
  %68 = load ptr, ptr %67, align 8, !tbaa !31
  %69 = load ptr, ptr %8, align 8, !tbaa !3
  %70 = call i32 @Hop_IsComplement(ptr noundef %69)
  %71 = call ptr @Hop_NotCond(ptr noundef %68, i32 noundef %70)
  store ptr %71, ptr %5, align 8
  store i32 1, ptr %12, align 4
  br label %72

72:                                               ; preds = %59, %23, %16
  call void @llvm.lifetime.end.p0(i64 4, ptr %11) #7
  call void @llvm.lifetime.end.p0(i64 8, ptr %10) #7
  %73 = load ptr, ptr %5, align 8
  ret ptr %73
}