; Function Attrs: nounwind uwtable
define ptr @Hop_Transfer(ptr noundef readonly %0, ptr noundef %1, ptr noundef %2, i32 noundef %3) local_unnamed_addr #0 {
  %5 = icmp eq ptr %0, %1
  br i1 %5, label %39, label %6

6:                                                ; preds = %4
  %7 = ptrtoint ptr %2 to i64
  %8 = and i64 %7, -2
  %9 = inttoptr i64 %8 to ptr
  %10 = getelementptr i8, ptr %9, i64 32
  %.val26 = load i32, ptr %10, align 8
  %11 = and i32 %.val26, 7
  %.not = icmp eq i32 %11, 1
  br i1 %.not, label %17, label %.preheader

.preheader:                                       ; preds = %6
  %12 = load ptr, ptr %0, align 8, !tbaa !30
  %13 = getelementptr i8, ptr %12, i64 4
  %.val27 = load i32, ptr %13, align 4, !tbaa !11
  %14 = icmp slt i32 %.val27, 1
  %15 = icmp eq i32 %3, 0
  %or.cond28 = or i1 %15, %14
  br i1 %or.cond28, label %.critedge, label %.lr.ph.preheader

.lr.ph.preheader:                                 ; preds = %.preheader
  %16 = zext i32 %3 to i64
  br label %.lr.ph

17:                                               ; preds = %6
  %18 = getelementptr i8, ptr %1, i64 24
  %.val25 = load ptr, ptr %18, align 8, !tbaa !28
  %19 = and i64 %7, 1
  %20 = ptrtoint ptr %.val25 to i64
  %21 = xor i64 %19, %20
  %22 = inttoptr i64 %21 to ptr
  br label %39

.lr.ph:                                           ; preds = %.lr.ph.preheader, %.lr.ph
  %indvars.iv = phi i64 [ 0, %.lr.ph.preheader ], [ %indvars.iv.next, %.lr.ph ]
  %23 = phi ptr [ %12, %.lr.ph.preheader ], [ %29, %.lr.ph ]
  %24 = getelementptr i8, ptr %23, i64 8
  %.val24 = load ptr, ptr %24, align 8, !tbaa !14
  %25 = getelementptr inbounds nuw ptr, ptr %.val24, i64 %indvars.iv
  %26 = load ptr, ptr %25, align 8, !tbaa !15
  %27 = trunc nuw nsw i64 %indvars.iv to i32
  %28 = tail call ptr @Hop_IthVar(ptr noundef %1, i32 noundef %27) #11
  store ptr %28, ptr %26, align 8, !tbaa !29
  %indvars.iv.next = add nuw nsw i64 %indvars.iv, 1
  %29 = load ptr, ptr %0, align 8, !tbaa !30
  %30 = getelementptr i8, ptr %29, i64 4
  %.val = load i32, ptr %30, align 4, !tbaa !11
  %31 = sext i32 %.val to i64
  %32 = icmp sge i64 %indvars.iv.next, %31
  %33 = icmp eq i64 %indvars.iv.next, %16
  %or.cond = or i1 %33, %32
  br i1 %or.cond, label %.critedge, label %.lr.ph, !llvm.loop !41

.critedge:                                        ; preds = %.lr.ph, %.preheader
  tail call void @Hop_Transfer_rec(ptr noundef %1, ptr noundef %9)
  tail call void @Hop_ConeUnmark_rec(ptr noundef %9)
  %34 = load ptr, ptr %9, align 8, !tbaa !29
  %35 = and i64 %7, 1
  %36 = ptrtoint ptr %34 to i64
  %37 = xor i64 %35, %36
  %38 = inttoptr i64 %37 to ptr
  br label %39

39:                                               ; preds = %4, %.critedge, %17
  %.021 = phi ptr [ %22, %17 ], [ %38, %.critedge ], [ %2, %4 ]
  ret ptr %.021
}